#include <math.h>
#include <stdio.h>
#include <stdlib.h>
#include <string.h>

void main()
{
int num,i,j,sum=0,mark;
scanf("%d",&num);
for(i=1;i<=num;i++)
{
mark=1;j=i;
if(!(j%7)) mark=0;
while(j)
{
if(j%10==7){mark=0;break;}
else j/=10;
}
if(mark) sum+=i*i;
}
printf("%d",sum);
}